target datalayout = "e-m:e-p270:32:32-p271:32:32-p272:64:64-i64:64-i128:128-f80:128-n8:16:32:64-S128"
target triple = "x86_64-pc-linux-gnu"

%struct.helper = type { ptr, %struct.ossl_quic_tx_packetiser_args_st, %struct.ossl_qtx_args_st, ptr, ptr, %struct.quic_txfc_st, %struct.quic_rxfc_st, %struct.quic_rxfc_st, %struct.quic_rxfc_st, %struct.quic_rxfc_st, %struct.ossl_statm_st, ptr, ptr, %struct.quic_stream_map_st, i8, i8, ptr, ptr, %struct.ossl_qrx_args_st, ptr, %struct.PACKET, i64, %union.anon.0, [16 x %struct.ossl_quic_ack_range_st] }
%struct.ossl_quic_tx_packetiser_args_st = type { %struct.quic_conn_id_st, %struct.quic_conn_id_st, %union.bio_addr_st, i32, ptr, ptr, ptr, ptr, ptr, ptr, ptr, ptr, ptr, ptr, ptr, ptr, ptr, ptr, ptr, i32, [3 x ptr] }
%struct.quic_conn_id_st = type { i8, [20 x i8] }
%union.bio_addr_st = type { %struct.sockaddr_in6, [84 x i8] }
%struct.sockaddr_in6 = type { i16, i16, i32, %struct.in6_addr, i32 }
%struct.in6_addr = type { %union.anon }
%union.anon = type { [4 x i32] }
%struct.ossl_qtx_args_st = type { ptr, ptr, ptr, i64, ptr, ptr }
%struct.quic_txfc_st = type { ptr, i64, i64, i8 }
%struct.quic_rxfc_st = type { i64, i64, i64, i64, i64, i64, i64, %struct.OSSL_TIME, ptr, ptr, ptr, i8, i8, i8, i8 }
%struct.OSSL_TIME = type { i64 }
%struct.ossl_statm_st = type { %struct.OSSL_TIME, %struct.OSSL_TIME, %struct.OSSL_TIME, %struct.OSSL_TIME, i8 }
%struct.quic_stream_map_st = type { ptr, %struct.quic_stream_list_node_st, %struct.quic_stream_list_node_st, %struct.quic_stream_list_node_st, i64, i64, i64, i64, i64, ptr, ptr, ptr, ptr, ptr, i32 }
%struct.quic_stream_list_node_st = type { ptr, ptr }
%struct.ossl_qrx_args_st = type { ptr, ptr, ptr, i64, i64, [3 x i64], i8 }
%struct.PACKET = type { ptr, i64 }
%union.anon.0 = type { %struct.ossl_quic_frame_new_conn_id_st }
%struct.ossl_quic_frame_new_conn_id_st = type { i64, i64, %struct.quic_conn_id_st, %struct.QUIC_STATELESS_RESET_TOKEN }
%struct.QUIC_STATELESS_RESET_TOKEN = type { [16 x i8] }
%struct.ossl_quic_ack_range_st = type { i64, i64 }
%struct.ossl_ackm_probe_info_st = type { i32, i32, [3 x i32] }

; Function Attrs: nounwind uwtable
define internal i32 @gen_probe_1rtt(ptr noundef %0) #0 {
  %2 = alloca ptr, align 8
  %3 = alloca ptr, align 8
  store ptr %0, ptr %2, align 8, !tbaa !82
  call void @llvm.lifetime.start.p0(i64 8, ptr %3) #7
  %4 = load ptr, ptr %2, align 8, !tbaa !82
  %5 = getelementptr inbounds nuw %struct.helper, ptr %4, i32 0, i32 1
  %6 = getelementptr inbounds nuw %struct.ossl_quic_tx_packetiser_args_st, ptr %5, i32 0, i32 7
  %7 = load ptr, ptr %6, align 8, !tbaa !94
  %8 = call ptr @ossl_ackm_get0_probe_request(ptr noundef %7)
  store ptr %8, ptr %3, align 8, !tbaa !143
  %9 = load ptr, ptr %3, align 8, !tbaa !143
  %10 = getelementptr inbounds nuw %struct.ossl_ackm_probe_info_st, ptr %9, i32 0, i32 2
  %11 = getelementptr inbounds [3 x i32], ptr %10, i64 0, i64 2
  %12 = load i32, ptr %11, align 4, !tbaa !4
  %13 = add i32 %12, 1
  store i32 %13, ptr %11, align 4, !tbaa !4
  call void @llvm.lifetime.end.p0(i64 8, ptr %3) #7
  ret i32 1
}