; Function Attrs: nounwind uwtable
define internal noundef i32 @gen_probe_1rtt(ptr noundef readonly captures(none) %0) #0 {
  %2 = getelementptr inbounds nuw i8, ptr %0, i64 192
  %3 = load ptr, ptr %2, align 8, !tbaa !57
  %4 = tail call ptr @ossl_ackm_get0_probe_request(ptr noundef %3) #8
  %5 = getelementptr inbounds nuw i8, ptr %4, i64 16
  %6 = load i32, ptr %5, align 4, !tbaa !129
  %7 = add i32 %6, 1
  store i32 %7, ptr %5, align 4, !tbaa !129
  ret i32 1
}